target datalayout = "e-m:e-p270:32:32-p271:32:32-p272:64:64-i64:64-i128:128-f80:128-n8:16:32:64-S128"
target triple = "x86_64-pc-linux-gnu"

@.str.4 = private unnamed_addr constant [2 x i32] [i32 46, i32 0], align 4

; Function Attrs: nounwind uwtable
define dso_local ptr @Py_DecodeLocale(ptr noundef %0, ptr noundef %1) #0 {
  %3 = alloca ptr, align 8
  %4 = alloca ptr, align 8
  %5 = alloca ptr, align 8
  %6 = alloca ptr, align 8
  %7 = alloca i32, align 4
  %8 = alloca i32, align 4
  store ptr %0, ptr %4, align 8, !tbaa !180
  store ptr %1, ptr %5, align 8, !tbaa !189
  call void @llvm.lifetime.start.p0(i64 8, ptr %6) #10
  call void @llvm.lifetime.start.p0(i64 4, ptr %7) #10
  %9 = load ptr, ptr %4, align 8, !tbaa !180
  %10 = load ptr, ptr %5, align 8, !tbaa !189
  %11 = call i32 @_Py_DecodeLocaleEx(ptr noundef %9, ptr noundef %6, ptr noundef %10, ptr noundef null, i32 noundef 0, i32 noundef 2)
  store i32 %11, ptr %7, align 4, !tbaa !4
  %12 = load i32, ptr %7, align 4, !tbaa !4
  %13 = icmp ne i32 %12, 0
  br i1 %13, label %14, label %22

14:                                               ; preds = %2
  %15 = load ptr, ptr %5, align 8, !tbaa !189
  %16 = icmp ne ptr %15, null
  br i1 %16, label %17, label %21

17:                                               ; preds = %14
  %18 = load i32, ptr %7, align 4, !tbaa !4
  %19 = sext i32 %18 to i64
  %20 = load ptr, ptr %5, align 8, !tbaa !189
  store i64 %19, ptr %20, align 8, !tbaa !186
  br label %21

21:                                               ; preds = %17, %14
  store ptr null, ptr %3, align 8
  store i32 1, ptr %8, align 4
  br label %24

22:                                               ; preds = %2
  %23 = load ptr, ptr %6, align 8, !tbaa !177
  store ptr %23, ptr %3, align 8
  store i32 1, ptr %8, align 4
  br label %24

24:                                               ; preds = %22, %21
  call void @llvm.lifetime.end.p0(i64 4, ptr %7) #10
  call void @llvm.lifetime.end.p0(i64 8, ptr %6) #10
  %25 = load ptr, ptr %3, align 8
  ret ptr %25
}

; Function Attrs: nounwind uwtable
define hidden i32 @_Py_isabs(ptr noundef %0) #0 {
  %2 = alloca ptr, align 8
  store ptr %0, ptr %2, align 8, !tbaa !177
  %3 = load ptr, ptr %2, align 8, !tbaa !177
  %4 = getelementptr i32, ptr %3, i64 0
  %5 = load i32, ptr %4, align 4, !tbaa !4
  %6 = icmp eq i32 %5, 47
  %7 = zext i1 %6 to i32
  ret i32 %7
}

; Function Attrs: nounwind uwtable
define hidden ptr @_Py_wgetcwd(ptr noundef %0, i64 noundef %1) #0 {
  %3 = alloca ptr, align 8
  %4 = alloca ptr, align 8
  %5 = alloca i64, align 8
  %6 = alloca [4096 x i8], align 16
  %7 = alloca ptr, align 8
  %8 = alloca i64, align 8
  %9 = alloca i32, align 4
  store ptr %0, ptr %4, align 8, !tbaa !177
  store i64 %1, ptr %5, align 8, !tbaa !186
  call void @llvm.lifetime.start.p0(i64 4096, ptr %6) #10
  call void @llvm.lifetime.start.p0(i64 8, ptr %7) #10
  call void @llvm.lifetime.start.p0(i64 8, ptr %8) #10
  %10 = getelementptr inbounds [4096 x i8], ptr %6, i64 0, i64 0
  %11 = call ptr @getcwd(ptr noundef %10, i64 noundef 4096) #10
  %12 = icmp eq ptr %11, null
  br i1 %12, label %13, label %14

13:                                               ; preds = %2
  store ptr null, ptr %3, align 8
  store i32 1, ptr %9, align 4
  br label %33

14:                                               ; preds = %2
  %15 = getelementptr inbounds [4096 x i8], ptr %6, i64 0, i64 0
  %16 = call ptr @Py_DecodeLocale(ptr noundef %15, ptr noundef %8)
  store ptr %16, ptr %7, align 8, !tbaa !177
  %17 = load ptr, ptr %7, align 8, !tbaa !177
  %18 = icmp eq ptr %17, null
  br i1 %18, label %19, label %20

19:                                               ; preds = %14
  store ptr null, ptr %3, align 8
  store i32 1, ptr %9, align 4
  br label %33

20:                                               ; preds = %14
  %21 = load i64, ptr %5, align 8, !tbaa !186
  %22 = load i64, ptr %8, align 8, !tbaa !186
  %23 = icmp ule i64 %21, %22
  br i1 %23, label %24, label %26

24:                                               ; preds = %20
  %25 = load ptr, ptr %7, align 8, !tbaa !177
  call void @PyMem_RawFree(ptr noundef %25)
  store ptr null, ptr %3, align 8
  store i32 1, ptr %9, align 4
  br label %33

26:                                               ; preds = %20
  %27 = load ptr, ptr %4, align 8, !tbaa !177
  %28 = load ptr, ptr %7, align 8, !tbaa !177
  %29 = load i64, ptr %5, align 8, !tbaa !186
  %30 = call ptr @wcsncpy(ptr noundef %27, ptr noundef %28, i64 noundef %29) #10
  %31 = load ptr, ptr %7, align 8, !tbaa !177
  call void @PyMem_RawFree(ptr noundef %31)
  %32 = load ptr, ptr %4, align 8, !tbaa !177
  store ptr %32, ptr %3, align 8
  store i32 1, ptr %9, align 4
  br label %33

33:                                               ; preds = %26, %24, %19, %13
  call void @llvm.lifetime.end.p0(i64 8, ptr %8) #10
  call void @llvm.lifetime.end.p0(i64 8, ptr %7) #10
  call void @llvm.lifetime.end.p0(i64 4096, ptr %6) #10
  %34 = load ptr, ptr %3, align 8
  ret ptr %34
}

; Function Attrs: nounwind uwtable
define hidden i32 @_Py_abspath(ptr noundef %0, ptr noundef %1) #0 {
  %3 = alloca i32, align 4
  %4 = alloca ptr, align 8
  %5 = alloca ptr, align 8
  %6 = alloca [4097 x i32], align 16
  %7 = alloca i32, align 4
  %8 = alloca [4097 x i32], align 16
  %9 = alloca i64, align 8
  %10 = alloca i64, align 8
  %11 = alloca i64, align 8
  %12 = alloca ptr, align 8
  store ptr %0, ptr %4, align 8, !tbaa !177
  store ptr %1, ptr %5, align 8, !tbaa !188
  %13 = load ptr, ptr %4, align 8, !tbaa !177
  %14 = getelementptr i32, ptr %13, i64 0
  %15 = load i32, ptr %14, align 4, !tbaa !4
  %16 = icmp eq i32 %15, 0
  br i1 %16, label %21, label %17

17:                                               ; preds = %2
  %18 = load ptr, ptr %4, align 8, !tbaa !177
  %19 = call i32 @wcscmp(ptr noundef %18, ptr noundef @.str.4) #11
  %20 = icmp ne i32 %19, 0
  br i1 %20, label %32, label %21

21:                                               ; preds = %17, %2
  call void @llvm.lifetime.start.p0(i64 16388, ptr %6) #10
  %22 = getelementptr [4097 x i32], ptr %6, i64 0, i64 4096
  store i32 0, ptr %22, align 16, !tbaa !4
  %23 = getelementptr inbounds [4097 x i32], ptr %6, i64 0, i64 0
  %24 = call ptr @_Py_wgetcwd(ptr noundef %23, i64 noundef 4096)
  %25 = icmp ne ptr %24, null
  br i1 %25, label %27, label %26

26:                                               ; preds = %21
  store i32 -1, ptr %3, align 4
  store i32 1, ptr %7, align 4
  br label %31

27:                                               ; preds = %21
  %28 = getelementptr inbounds [4097 x i32], ptr %6, i64 0, i64 0
  %29 = call ptr @_PyMem_RawWcsdup(ptr noundef %28)
  %30 = load ptr, ptr %5, align 8, !tbaa !188
  store ptr %29, ptr %30, align 8, !tbaa !177
  store i32 0, ptr %3, align 4
  store i32 1, ptr %7, align 4
  br label %31

31:                                               ; preds = %27, %26
  call void @llvm.lifetime.end.p0(i64 16388, ptr %6) #10
  br label %93

32:                                               ; preds = %17
  %33 = load ptr, ptr %4, align 8, !tbaa !177
  %34 = call i32 @_Py_isabs(ptr noundef %33)
  %35 = icmp ne i32 %34, 0
  br i1 %35, label %36, label %40

36:                                               ; preds = %32
  %37 = load ptr, ptr %4, align 8, !tbaa !177
  %38 = call ptr @_PyMem_RawWcsdup(ptr noundef %37)
  %39 = load ptr, ptr %5, align 8, !tbaa !188
  store ptr %38, ptr %39, align 8, !tbaa !177
  store i32 0, ptr %3, align 4
  br label %93

40:                                               ; preds = %32
  call void @llvm.lifetime.start.p0(i64 16388, ptr %8) #10
  %41 = getelementptr [4097 x i32], ptr %8, i64 0, i64 4096
  store i32 0, ptr %41, align 16, !tbaa !4
  %42 = getelementptr inbounds [4097 x i32], ptr %8, i64 0, i64 0
  %43 = call ptr @_Py_wgetcwd(ptr noundef %42, i64 noundef 4096)
  %44 = icmp ne ptr %43, null
  br i1 %44, label %46, label %45

45:                                               ; preds = %40
  store i32 -1, ptr %3, align 4
  store i32 1, ptr %7, align 4
  br label %92

46:                                               ; preds = %40
  call void @llvm.lifetime.start.p0(i64 8, ptr %9) #10
  %47 = getelementptr inbounds [4097 x i32], ptr %8, i64 0, i64 0
  %48 = call i64 @wcslen(ptr noundef %47) #11
  store i64 %48, ptr %9, align 8, !tbaa !186
  call void @llvm.lifetime.start.p0(i64 8, ptr %10) #10
  %49 = load ptr, ptr %4, align 8, !tbaa !177
  %50 = call i64 @wcslen(ptr noundef %49) #11
  store i64 %50, ptr %10, align 8, !tbaa !186
  call void @llvm.lifetime.start.p0(i64 8, ptr %11) #10
  %51 = load i64, ptr %9, align 8, !tbaa !186
  %52 = add i64 %51, 1
  %53 = load i64, ptr %10, align 8, !tbaa !186
  %54 = add i64 %52, %53
  %55 = add i64 %54, 1
  store i64 %55, ptr %11, align 8, !tbaa !186
  %56 = load i64, ptr %11, align 8, !tbaa !186
  %57 = icmp ule i64 %56, 2305843009213693951
  br i1 %57, label %58, label %63

58:                                               ; preds = %46
  %59 = load i64, ptr %11, align 8, !tbaa !186
  %60 = mul i64 %59, 4
  %61 = call ptr @PyMem_RawMalloc(i64 noundef %60)
  %62 = load ptr, ptr %5, align 8, !tbaa !188
  store ptr %61, ptr %62, align 8, !tbaa !177
  br label %65

63:                                               ; preds = %46
  %64 = load ptr, ptr %5, align 8, !tbaa !188
  store ptr null, ptr %64, align 8, !tbaa !177
  br label %65

65:                                               ; preds = %63, %58
  %66 = load ptr, ptr %5, align 8, !tbaa !188
  %67 = load ptr, ptr %66, align 8, !tbaa !177
  %68 = icmp eq ptr %67, null
  br i1 %68, label %69, label %70

69:                                               ; preds = %65
  store i32 0, ptr %3, align 4
  store i32 1, ptr %7, align 4
  br label %91

70:                                               ; preds = %65
  call void @llvm.lifetime.start.p0(i64 8, ptr %12) #10
  %71 = load ptr, ptr %5, align 8, !tbaa !188
  %72 = load ptr, ptr %71, align 8, !tbaa !177
  store ptr %72, ptr %12, align 8, !tbaa !177
  %73 = load ptr, ptr %12, align 8, !tbaa !177
  %74 = getelementptr inbounds [4097 x i32], ptr %8, i64 0, i64 0
  %75 = load i64, ptr %9, align 8, !tbaa !186
  %76 = mul i64 %75, 4
  call void @llvm.memcpy.p0.p0.i64(ptr align 4 %73, ptr align 16 %74, i64 %76, i1 false)
  %77 = load i64, ptr %9, align 8, !tbaa !186
  %78 = load ptr, ptr %12, align 8, !tbaa !177
  %79 = getelementptr i32, ptr %78, i64 %77
  store ptr %79, ptr %12, align 8, !tbaa !177
  %80 = load ptr, ptr %12, align 8, !tbaa !177
  store i32 47, ptr %80, align 4, !tbaa !4
  %81 = load ptr, ptr %12, align 8, !tbaa !177
  %82 = getelementptr i32, ptr %81, i32 1
  store ptr %82, ptr %12, align 8, !tbaa !177
  %83 = load ptr, ptr %12, align 8, !tbaa !177
  %84 = load ptr, ptr %4, align 8, !tbaa !177
  %85 = load i64, ptr %10, align 8, !tbaa !186
  %86 = mul i64 %85, 4
  call void @llvm.memcpy.p0.p0.i64(ptr align 4 %83, ptr align 4 %84, i64 %86, i1 false)
  %87 = load i64, ptr %10, align 8, !tbaa !186
  %88 = load ptr, ptr %12, align 8, !tbaa !177
  %89 = getelementptr i32, ptr %88, i64 %87
  store ptr %89, ptr %12, align 8, !tbaa !177
  %90 = load ptr, ptr %12, align 8, !tbaa !177
  store i32 0, ptr %90, align 4, !tbaa !4
  store i32 0, ptr %3, align 4
  store i32 1, ptr %7, align 4
  call void @llvm.lifetime.end.p0(i64 8, ptr %12) #10
  br label %91

91:                                               ; preds = %70, %69
  call void @llvm.lifetime.end.p0(i64 8, ptr %11) #10
  call void @llvm.lifetime.end.p0(i64 8, ptr %10) #10
  call void @llvm.lifetime.end.p0(i64 8, ptr %9) #10
  br label %92

92:                                               ; preds = %91, %45
  call void @llvm.lifetime.end.p0(i64 16388, ptr %8) #10
  br label %93

93:                                               ; preds = %92, %36, %31
  %94 = load i32, ptr %3, align 4
  ret i32 %94
}