; Function Attrs: nounwind uwtable
define hidden range(i32 -1, 1) i32 @_Py_abspath(ptr noundef %0, ptr noundef writeonly captures(none) %1) local_unnamed_addr #0 {
  %3 = alloca ptr, align 8
  %4 = alloca [4096 x i8], align 16
  %5 = alloca i64, align 8
  %6 = alloca ptr, align 8
  %7 = alloca [4096 x i8], align 16
  %8 = alloca i64, align 8
  %9 = alloca [4097 x i32], align 16
  %10 = alloca [4097 x i32], align 16
  %11 = load i32, ptr %0, align 4, !tbaa !180
  %12 = icmp eq i32 %11, 0
  br i1 %12, label %15, label %13

13:                                               ; preds = %2
  %14 = tail call i32 @wcscmp(ptr noundef nonnull %0, ptr noundef nonnull @.str.4) #18
  %.not = icmp eq i32 %14, 0
  br i1 %.not, label %15, label %30

15:                                               ; preds = %13, %2
  call void @llvm.lifetime.start.p0(i64 16388, ptr nonnull %9) #17
  %16 = getelementptr inbounds nuw i8, ptr %9, i64 16384
  store i32 0, ptr %16, align 16, !tbaa !180
  call void @llvm.lifetime.start.p0(i64 4096, ptr nonnull %7) #17
  call void @llvm.lifetime.start.p0(i64 8, ptr nonnull %8) #17
  %17 = call ptr @getcwd(ptr noundef nonnull %7, i64 noundef 4096) #17
  %18 = icmp eq ptr %17, null
  br i1 %18, label %_Py_wgetcwd.exit.thread, label %19

19:                                               ; preds = %15
  call void @llvm.lifetime.start.p0(i64 8, ptr nonnull %6) #17
  %20 = call i32 @_Py_DecodeLocaleEx(ptr noundef nonnull %7, ptr noundef nonnull %6, ptr noundef nonnull %8, ptr noundef null, i32 noundef 0, i32 noundef 2)
  %.not.i.i = icmp eq i32 %20, 0
  br i1 %.not.i.i, label %Py_DecodeLocale.exit.i, label %Py_DecodeLocale.exit.thread.i

Py_DecodeLocale.exit.thread.i:                    ; preds = %19
  call void @llvm.lifetime.end.p0(i64 8, ptr nonnull %6) #17
  br label %_Py_wgetcwd.exit.thread

Py_DecodeLocale.exit.i:                           ; preds = %19
  %21 = load ptr, ptr %6, align 8, !tbaa !184
  call void @llvm.lifetime.end.p0(i64 8, ptr nonnull %6) #17
  %22 = icmp eq ptr %21, null
  br i1 %22, label %_Py_wgetcwd.exit.thread, label %23

23:                                               ; preds = %Py_DecodeLocale.exit.i
  %24 = load i64, ptr %8, align 8, !tbaa !183
  %.not.i = icmp ult i64 %24, 4096
  br i1 %.not.i, label %26, label %25

25:                                               ; preds = %23
  call void @PyMem_RawFree(ptr noundef nonnull %21) #17
  br label %_Py_wgetcwd.exit.thread

_Py_wgetcwd.exit.thread:                          ; preds = %25, %15, %Py_DecodeLocale.exit.i, %Py_DecodeLocale.exit.thread.i
  call void @llvm.lifetime.end.p0(i64 8, ptr nonnull %8) #17
  call void @llvm.lifetime.end.p0(i64 4096, ptr nonnull %7) #17
  br label %29

26:                                               ; preds = %23
  %27 = call ptr @wcsncpy(ptr noundef nonnull %9, ptr noundef nonnull %21, i64 noundef 4096) #17
  call void @PyMem_RawFree(ptr noundef nonnull %21) #17
  call void @llvm.lifetime.end.p0(i64 8, ptr nonnull %8) #17
  call void @llvm.lifetime.end.p0(i64 4096, ptr nonnull %7) #17
  %28 = call ptr @_PyMem_RawWcsdup(ptr noundef nonnull %9) #17
  store ptr %28, ptr %1, align 8, !tbaa !184
  br label %29

29:                                               ; preds = %_Py_wgetcwd.exit.thread, %26
  %.0 = phi i32 [ 0, %26 ], [ -1, %_Py_wgetcwd.exit.thread ]
  call void @llvm.lifetime.end.p0(i64 16388, ptr nonnull %9) #17
  br label %62

30:                                               ; preds = %13
  %.not43 = icmp eq i32 %11, 47
  br i1 %.not43, label %31, label %33

31:                                               ; preds = %30
  %32 = tail call ptr @_PyMem_RawWcsdup(ptr noundef nonnull %0) #17
  store ptr %32, ptr %1, align 8, !tbaa !184
  br label %62

33:                                               ; preds = %30
  call void @llvm.lifetime.start.p0(i64 16388, ptr nonnull %10) #17
  %34 = getelementptr inbounds nuw i8, ptr %10, i64 16384
  store i32 0, ptr %34, align 16, !tbaa !180
  call void @llvm.lifetime.start.p0(i64 4096, ptr nonnull %4) #17
  call void @llvm.lifetime.start.p0(i64 8, ptr nonnull %5) #17
  %35 = call ptr @getcwd(ptr noundef nonnull %4, i64 noundef 4096) #17
  %36 = icmp eq ptr %35, null
  br i1 %36, label %_Py_wgetcwd.exit37.thread, label %37

37:                                               ; preds = %33
  call void @llvm.lifetime.start.p0(i64 8, ptr nonnull %3) #17
  %38 = call i32 @_Py_DecodeLocaleEx(ptr noundef nonnull %4, ptr noundef nonnull %3, ptr noundef nonnull %5, ptr noundef null, i32 noundef 0, i32 noundef 2)
  %.not.i.i32 = icmp eq i32 %38, 0
  br i1 %.not.i.i32, label %Py_DecodeLocale.exit.i35, label %Py_DecodeLocale.exit.thread.i33

Py_DecodeLocale.exit.thread.i33:                  ; preds = %37
  call void @llvm.lifetime.end.p0(i64 8, ptr nonnull %3) #17
  br label %_Py_wgetcwd.exit37.thread

Py_DecodeLocale.exit.i35:                         ; preds = %37
  %39 = load ptr, ptr %3, align 8, !tbaa !184
  call void @llvm.lifetime.end.p0(i64 8, ptr nonnull %3) #17
  %40 = icmp eq ptr %39, null
  br i1 %40, label %_Py_wgetcwd.exit37.thread, label %41

41:                                               ; preds = %Py_DecodeLocale.exit.i35
  %42 = load i64, ptr %5, align 8, !tbaa !183
  %.not.i36 = icmp ult i64 %42, 4096
  br i1 %.not.i36, label %44, label %43

43:                                               ; preds = %41
  call void @PyMem_RawFree(ptr noundef nonnull %39) #17
  br label %_Py_wgetcwd.exit37.thread

_Py_wgetcwd.exit37.thread:                        ; preds = %43, %33, %Py_DecodeLocale.exit.i35, %Py_DecodeLocale.exit.thread.i33
  call void @llvm.lifetime.end.p0(i64 8, ptr nonnull %5) #17
  call void @llvm.lifetime.end.p0(i64 4096, ptr nonnull %4) #17
  br label %61

44:                                               ; preds = %41
  %45 = call ptr @wcsncpy(ptr noundef nonnull %10, ptr noundef nonnull %39, i64 noundef 4096) #17
  call void @PyMem_RawFree(ptr noundef nonnull %39) #17
  call void @llvm.lifetime.end.p0(i64 8, ptr nonnull %5) #17
  call void @llvm.lifetime.end.p0(i64 4096, ptr nonnull %4) #17
  %46 = call i64 @wcslen(ptr noundef nonnull %10) #18
  %47 = call i64 @wcslen(ptr noundef nonnull %0) #18
  %48 = add i64 %46, 2
  %49 = add i64 %48, %47
  %50 = icmp ult i64 %49, 2305843009213693952
  br i1 %50, label %51, label %.thread

.thread:                                          ; preds = %44
  store ptr null, ptr %1, align 8, !tbaa !184
  br label %61

51:                                               ; preds = %44
  %52 = shl nuw nsw i64 %49, 2
  %53 = call ptr @PyMem_RawMalloc(i64 noundef %52) #17
  store ptr %53, ptr %1, align 8, !tbaa !184
  %54 = icmp eq ptr %53, null
  br i1 %54, label %61, label %55

55:                                               ; preds = %51
  %56 = shl i64 %46, 2
  call void @llvm.memcpy.p0.p0.i64(ptr nonnull align 4 %53, ptr nonnull align 16 %10, i64 %56, i1 false)
  %57 = getelementptr i32, ptr %53, i64 %46
  store i32 47, ptr %57, align 4, !tbaa !180
  %58 = getelementptr i8, ptr %57, i64 4
  %59 = shl i64 %47, 2
  call void @llvm.memcpy.p0.p0.i64(ptr align 4 %58, ptr nonnull align 4 %0, i64 %59, i1 false)
  %60 = getelementptr i32, ptr %58, i64 %47
  store i32 0, ptr %60, align 4, !tbaa !180
  br label %61

61:                                               ; preds = %.thread, %_Py_wgetcwd.exit37.thread, %55, %51
  %.2 = phi i32 [ 0, %51 ], [ 0, %55 ], [ -1, %_Py_wgetcwd.exit37.thread ], [ 0, %.thread ]
  call void @llvm.lifetime.end.p0(i64 16388, ptr nonnull %10) #17
  br label %62

62:                                               ; preds = %61, %31, %29
  %.1 = phi i32 [ %.0, %29 ], [ 0, %31 ], [ %.2, %61 ]
  ret i32 %.1
}